target datalayout = "e-m:e-p270:32:32-p271:32:32-p272:64:64-i64:64-i128:128-f80:128-n8:16:32:64-S128"
target triple = "x86_64-pc-linux-gnu"

%struct.ExecParallelInitializeDSMContext = type { ptr, ptr, i32 }
%struct.PlanState = type { i32, ptr, ptr, ptr, ptr, ptr, ptr, ptr, ptr, ptr, ptr, ptr, ptr, ptr, ptr, ptr, ptr, ptr, i8, ptr, ptr, ptr, ptr, ptr, i8, i8, i8, i8, i8, i8, i8, i8 }
%struct.SharedExecutorInstrumentation = type { i32, i32, i32, i32, [0 x i32] }
%struct.Plan = type { i32, i32, double, double, double, i32, i8, i8, i8, i32, ptr, ptr, ptr, ptr, ptr, ptr, ptr }
%struct.Node = type { i32 }

; Function Attrs: nounwind uwtable
define internal zeroext i1 @ExecParallelInitializeDSM(ptr noundef %0, ptr noundef %1) #0 {
  %3 = alloca i1, align 1
  %4 = alloca ptr, align 8
  %5 = alloca ptr, align 8
  store ptr %0, ptr %4, align 8
  store ptr %1, ptr %5, align 8
  %6 = load ptr, ptr %4, align 8
  %7 = icmp eq ptr %6, null
  br i1 %7, label %8, label %9

8:                                                ; preds = %2
  store i1 false, ptr %3, align 1
  br label %171

9:                                                ; preds = %2
  %10 = load ptr, ptr %5, align 8
  %11 = getelementptr inbounds nuw %struct.ExecParallelInitializeDSMContext, ptr %10, i32 0, i32 1
  %12 = load ptr, ptr %11, align 8
  %13 = icmp ne ptr %12, null
  br i1 %13, label %14, label %29

14:                                               ; preds = %9
  %15 = load ptr, ptr %4, align 8
  %16 = getelementptr inbounds nuw %struct.PlanState, ptr %15, i32 0, i32 1
  %17 = load ptr, ptr %16, align 8
  %18 = getelementptr inbounds nuw %struct.Plan, ptr %17, i32 0, i32 9
  %19 = load i32, ptr %18, align 8
  %20 = load ptr, ptr %5, align 8
  %21 = getelementptr inbounds nuw %struct.ExecParallelInitializeDSMContext, ptr %20, i32 0, i32 1
  %22 = load ptr, ptr %21, align 8
  %23 = getelementptr inbounds nuw %struct.SharedExecutorInstrumentation, ptr %22, i32 0, i32 4
  %24 = load ptr, ptr %5, align 8
  %25 = getelementptr inbounds nuw %struct.ExecParallelInitializeDSMContext, ptr %24, i32 0, i32 2
  %26 = load i32, ptr %25, align 8
  %27 = sext i32 %26 to i64
  %28 = getelementptr inbounds [0 x i32], ptr %23, i64 0, i64 %27
  store i32 %19, ptr %28, align 4
  br label %29

29:                                               ; preds = %14, %9
  %30 = load ptr, ptr %5, align 8
  %31 = getelementptr inbounds nuw %struct.ExecParallelInitializeDSMContext, ptr %30, i32 0, i32 2
  %32 = load i32, ptr %31, align 8
  %33 = add i32 %32, 1
  store i32 %33, ptr %31, align 8
  %34 = load ptr, ptr %4, align 8
  %35 = getelementptr inbounds nuw %struct.Node, ptr %34, i32 0, i32 0
  %36 = load i32, ptr %35, align 4
  switch i32 %36, label %166 [
    i32 402, label %37
    i32 404, label %50
    i32 405, label %63
    i32 417, label %76
    i32 396, label %89
    i32 418, label %102
    i32 407, label %115
    i32 422, label %128
    i32 433, label %141
    i32 425, label %146
    i32 426, label %151
    i32 428, label %156
    i32 424, label %161
  ]

37:                                               ; preds = %29
  %38 = load ptr, ptr %4, align 8
  %39 = getelementptr inbounds nuw %struct.PlanState, ptr %38, i32 0, i32 1
  %40 = load ptr, ptr %39, align 8
  %41 = getelementptr inbounds nuw %struct.Plan, ptr %40, i32 0, i32 6
  %42 = load i8, ptr %41, align 4, !range !7, !noundef !8
  %43 = trunc i8 %42 to i1
  br i1 %43, label %44, label %49

44:                                               ; preds = %37
  %45 = load ptr, ptr %4, align 8
  %46 = load ptr, ptr %5, align 8
  %47 = getelementptr inbounds nuw %struct.ExecParallelInitializeDSMContext, ptr %46, i32 0, i32 0
  %48 = load ptr, ptr %47, align 8
  call void @ExecSeqScanInitializeDSM(ptr noundef %45, ptr noundef %48)
  br label %49

49:                                               ; preds = %44, %37
  br label %167

50:                                               ; preds = %29
  %51 = load ptr, ptr %4, align 8
  %52 = getelementptr inbounds nuw %struct.PlanState, ptr %51, i32 0, i32 1
  %53 = load ptr, ptr %52, align 8
  %54 = getelementptr inbounds nuw %struct.Plan, ptr %53, i32 0, i32 6
  %55 = load i8, ptr %54, align 4, !range !7, !noundef !8
  %56 = trunc i8 %55 to i1
  br i1 %56, label %57, label %62

57:                                               ; preds = %50
  %58 = load ptr, ptr %4, align 8
  %59 = load ptr, ptr %5, align 8
  %60 = getelementptr inbounds nuw %struct.ExecParallelInitializeDSMContext, ptr %59, i32 0, i32 0
  %61 = load ptr, ptr %60, align 8
  call void @ExecIndexScanInitializeDSM(ptr noundef %58, ptr noundef %61)
  br label %62

62:                                               ; preds = %57, %50
  br label %167

63:                                               ; preds = %29
  %64 = load ptr, ptr %4, align 8
  %65 = getelementptr inbounds nuw %struct.PlanState, ptr %64, i32 0, i32 1
  %66 = load ptr, ptr %65, align 8
  %67 = getelementptr inbounds nuw %struct.Plan, ptr %66, i32 0, i32 6
  %68 = load i8, ptr %67, align 4, !range !7, !noundef !8
  %69 = trunc i8 %68 to i1
  br i1 %69, label %70, label %75

70:                                               ; preds = %63
  %71 = load ptr, ptr %4, align 8
  %72 = load ptr, ptr %5, align 8
  %73 = getelementptr inbounds nuw %struct.ExecParallelInitializeDSMContext, ptr %72, i32 0, i32 0
  %74 = load ptr, ptr %73, align 8
  call void @ExecIndexOnlyScanInitializeDSM(ptr noundef %71, ptr noundef %74)
  br label %75

75:                                               ; preds = %70, %63
  br label %167

76:                                               ; preds = %29
  %77 = load ptr, ptr %4, align 8
  %78 = getelementptr inbounds nuw %struct.PlanState, ptr %77, i32 0, i32 1
  %79 = load ptr, ptr %78, align 8
  %80 = getelementptr inbounds nuw %struct.Plan, ptr %79, i32 0, i32 6
  %81 = load i8, ptr %80, align 4, !range !7, !noundef !8
  %82 = trunc i8 %81 to i1
  br i1 %82, label %83, label %88

83:                                               ; preds = %76
  %84 = load ptr, ptr %4, align 8
  %85 = load ptr, ptr %5, align 8
  %86 = getelementptr inbounds nuw %struct.ExecParallelInitializeDSMContext, ptr %85, i32 0, i32 0
  %87 = load ptr, ptr %86, align 8
  call void @ExecForeignScanInitializeDSM(ptr noundef %84, ptr noundef %87)
  br label %88

88:                                               ; preds = %83, %76
  br label %167

89:                                               ; preds = %29
  %90 = load ptr, ptr %4, align 8
  %91 = getelementptr inbounds nuw %struct.PlanState, ptr %90, i32 0, i32 1
  %92 = load ptr, ptr %91, align 8
  %93 = getelementptr inbounds nuw %struct.Plan, ptr %92, i32 0, i32 6
  %94 = load i8, ptr %93, align 4, !range !7, !noundef !8
  %95 = trunc i8 %94 to i1
  br i1 %95, label %96, label %101

96:                                               ; preds = %89
  %97 = load ptr, ptr %4, align 8
  %98 = load ptr, ptr %5, align 8
  %99 = getelementptr inbounds nuw %struct.ExecParallelInitializeDSMContext, ptr %98, i32 0, i32 0
  %100 = load ptr, ptr %99, align 8
  call void @ExecAppendInitializeDSM(ptr noundef %97, ptr noundef %100)
  br label %101

101:                                              ; preds = %96, %89
  br label %167

102:                                              ; preds = %29
  %103 = load ptr, ptr %4, align 8
  %104 = getelementptr inbounds nuw %struct.PlanState, ptr %103, i32 0, i32 1
  %105 = load ptr, ptr %104, align 8
  %106 = getelementptr inbounds nuw %struct.Plan, ptr %105, i32 0, i32 6
  %107 = load i8, ptr %106, align 4, !range !7, !noundef !8
  %108 = trunc i8 %107 to i1
  br i1 %108, label %109, label %114

109:                                              ; preds = %102
  %110 = load ptr, ptr %4, align 8
  %111 = load ptr, ptr %5, align 8
  %112 = getelementptr inbounds nuw %struct.ExecParallelInitializeDSMContext, ptr %111, i32 0, i32 0
  %113 = load ptr, ptr %112, align 8
  call void @ExecCustomScanInitializeDSM(ptr noundef %110, ptr noundef %113)
  br label %114

114:                                              ; preds = %109, %102
  br label %167

115:                                              ; preds = %29
  %116 = load ptr, ptr %4, align 8
  %117 = getelementptr inbounds nuw %struct.PlanState, ptr %116, i32 0, i32 1
  %118 = load ptr, ptr %117, align 8
  %119 = getelementptr inbounds nuw %struct.Plan, ptr %118, i32 0, i32 6
  %120 = load i8, ptr %119, align 4, !range !7, !noundef !8
  %121 = trunc i8 %120 to i1
  br i1 %121, label %122, label %127

122:                                              ; preds = %115
  %123 = load ptr, ptr %4, align 8
  %124 = load ptr, ptr %5, align 8
  %125 = getelementptr inbounds nuw %struct.ExecParallelInitializeDSMContext, ptr %124, i32 0, i32 0
  %126 = load ptr, ptr %125, align 8
  call void @ExecBitmapHeapInitializeDSM(ptr noundef %123, ptr noundef %126)
  br label %127

127:                                              ; preds = %122, %115
  br label %167

128:                                              ; preds = %29
  %129 = load ptr, ptr %4, align 8
  %130 = getelementptr inbounds nuw %struct.PlanState, ptr %129, i32 0, i32 1
  %131 = load ptr, ptr %130, align 8
  %132 = getelementptr inbounds nuw %struct.Plan, ptr %131, i32 0, i32 6
  %133 = load i8, ptr %132, align 4, !range !7, !noundef !8
  %134 = trunc i8 %133 to i1
  br i1 %134, label %135, label %140

135:                                              ; preds = %128
  %136 = load ptr, ptr %4, align 8
  %137 = load ptr, ptr %5, align 8
  %138 = getelementptr inbounds nuw %struct.ExecParallelInitializeDSMContext, ptr %137, i32 0, i32 0
  %139 = load ptr, ptr %138, align 8
  call void @ExecHashJoinInitializeDSM(ptr noundef %136, ptr noundef %139)
  br label %140

140:                                              ; preds = %135, %128
  br label %167

141:                                              ; preds = %29
  %142 = load ptr, ptr %4, align 8
  %143 = load ptr, ptr %5, align 8
  %144 = getelementptr inbounds nuw %struct.ExecParallelInitializeDSMContext, ptr %143, i32 0, i32 0
  %145 = load ptr, ptr %144, align 8
  call void @ExecHashInitializeDSM(ptr noundef %142, ptr noundef %145)
  br label %167

146:                                              ; preds = %29
  %147 = load ptr, ptr %4, align 8
  %148 = load ptr, ptr %5, align 8
  %149 = getelementptr inbounds nuw %struct.ExecParallelInitializeDSMContext, ptr %148, i32 0, i32 0
  %150 = load ptr, ptr %149, align 8
  call void @ExecSortInitializeDSM(ptr noundef %147, ptr noundef %150)
  br label %167

151:                                              ; preds = %29
  %152 = load ptr, ptr %4, align 8
  %153 = load ptr, ptr %5, align 8
  %154 = getelementptr inbounds nuw %struct.ExecParallelInitializeDSMContext, ptr %153, i32 0, i32 0
  %155 = load ptr, ptr %154, align 8
  call void @ExecIncrementalSortInitializeDSM(ptr noundef %152, ptr noundef %155)
  br label %167

156:                                              ; preds = %29
  %157 = load ptr, ptr %4, align 8
  %158 = load ptr, ptr %5, align 8
  %159 = getelementptr inbounds nuw %struct.ExecParallelInitializeDSMContext, ptr %158, i32 0, i32 0
  %160 = load ptr, ptr %159, align 8
  call void @ExecAggInitializeDSM(ptr noundef %157, ptr noundef %160)
  br label %167

161:                                              ; preds = %29
  %162 = load ptr, ptr %4, align 8
  %163 = load ptr, ptr %5, align 8
  %164 = getelementptr inbounds nuw %struct.ExecParallelInitializeDSMContext, ptr %163, i32 0, i32 0
  %165 = load ptr, ptr %164, align 8
  call void @ExecMemoizeInitializeDSM(ptr noundef %162, ptr noundef %165)
  br label %167

166:                                              ; preds = %29
  br label %167

167:                                              ; preds = %166, %161, %156, %151, %146, %141, %140, %127, %114, %101, %88, %75, %62, %49
  %168 = load ptr, ptr %4, align 8
  %169 = load ptr, ptr %5, align 8
  %170 = call zeroext i1 @planstate_tree_walker_impl(ptr noundef %168, ptr noundef @ExecParallelInitializeDSM, ptr noundef %169)
  store i1 %170, ptr %3, align 1
  br label %171

171:                                              ; preds = %167, %8
  %172 = load i1, ptr %3, align 1
  ret i1 %172
}