; Function Attrs: nounwind uwtable
define internal zeroext i1 @ExecParallelInitializeDSM(ptr noundef %0, ptr noundef %1) #0 {
  %3 = icmp eq ptr %0, null
  br i1 %3, label %98, label %4

4:                                                ; preds = %2
  %5 = getelementptr inbounds nuw i8, ptr %1, i64 8
  %6 = load ptr, ptr %5, align 8
  %.not = icmp eq ptr %6, null
  br i1 %.not, label %17, label %7

7:                                                ; preds = %4
  %8 = getelementptr inbounds nuw i8, ptr %0, i64 8
  %9 = load ptr, ptr %8, align 8
  %10 = getelementptr inbounds nuw i8, ptr %9, i64 40
  %11 = load i32, ptr %10, align 8
  %12 = getelementptr inbounds nuw i8, ptr %6, i64 16
  %13 = getelementptr inbounds nuw i8, ptr %1, i64 16
  %14 = load i32, ptr %13, align 8
  %15 = sext i32 %14 to i64
  %16 = getelementptr inbounds [0 x i32], ptr %12, i64 0, i64 %15
  store i32 %11, ptr %16, align 4
  br label %17

17:                                               ; preds = %7, %4
  %18 = getelementptr inbounds nuw i8, ptr %1, i64 16
  %19 = load i32, ptr %18, align 8
  %20 = add i32 %19, 1
  store i32 %20, ptr %18, align 8
  %21 = load i32, ptr %0, align 4
  switch i32 %21, label %96 [
    i32 402, label %22
    i32 404, label %30
    i32 405, label %38
    i32 417, label %46
    i32 396, label %54
    i32 418, label %62
    i32 407, label %70
    i32 422, label %78
    i32 433, label %86
    i32 425, label %88
    i32 426, label %90
    i32 428, label %92
    i32 424, label %94
  ]

22:                                               ; preds = %17
  %23 = getelementptr inbounds nuw i8, ptr %0, i64 8
  %24 = load ptr, ptr %23, align 8
  %25 = getelementptr inbounds nuw i8, ptr %24, i64 36
  %26 = load i8, ptr %25, align 4, !range !4, !noundef !5
  %27 = trunc nuw i8 %26 to i1
  br i1 %27, label %28, label %96

28:                                               ; preds = %22
  %29 = load ptr, ptr %1, align 8
  tail call void @ExecSeqScanInitializeDSM(ptr noundef nonnull %0, ptr noundef %29) #9
  br label %96

30:                                               ; preds = %17
  %31 = getelementptr inbounds nuw i8, ptr %0, i64 8
  %32 = load ptr, ptr %31, align 8
  %33 = getelementptr inbounds nuw i8, ptr %32, i64 36
  %34 = load i8, ptr %33, align 4, !range !4, !noundef !5
  %35 = trunc nuw i8 %34 to i1
  br i1 %35, label %36, label %96

36:                                               ; preds = %30
  %37 = load ptr, ptr %1, align 8
  tail call void @ExecIndexScanInitializeDSM(ptr noundef nonnull %0, ptr noundef %37) #9
  br label %96

38:                                               ; preds = %17
  %39 = getelementptr inbounds nuw i8, ptr %0, i64 8
  %40 = load ptr, ptr %39, align 8
  %41 = getelementptr inbounds nuw i8, ptr %40, i64 36
  %42 = load i8, ptr %41, align 4, !range !4, !noundef !5
  %43 = trunc nuw i8 %42 to i1
  br i1 %43, label %44, label %96

44:                                               ; preds = %38
  %45 = load ptr, ptr %1, align 8
  tail call void @ExecIndexOnlyScanInitializeDSM(ptr noundef nonnull %0, ptr noundef %45) #9
  br label %96

46:                                               ; preds = %17
  %47 = getelementptr inbounds nuw i8, ptr %0, i64 8
  %48 = load ptr, ptr %47, align 8
  %49 = getelementptr inbounds nuw i8, ptr %48, i64 36
  %50 = load i8, ptr %49, align 4, !range !4, !noundef !5
  %51 = trunc nuw i8 %50 to i1
  br i1 %51, label %52, label %96

52:                                               ; preds = %46
  %53 = load ptr, ptr %1, align 8
  tail call void @ExecForeignScanInitializeDSM(ptr noundef nonnull %0, ptr noundef %53) #9
  br label %96

54:                                               ; preds = %17
  %55 = getelementptr inbounds nuw i8, ptr %0, i64 8
  %56 = load ptr, ptr %55, align 8
  %57 = getelementptr inbounds nuw i8, ptr %56, i64 36
  %58 = load i8, ptr %57, align 4, !range !4, !noundef !5
  %59 = trunc nuw i8 %58 to i1
  br i1 %59, label %60, label %96

60:                                               ; preds = %54
  %61 = load ptr, ptr %1, align 8
  tail call void @ExecAppendInitializeDSM(ptr noundef nonnull %0, ptr noundef %61) #9
  br label %96

62:                                               ; preds = %17
  %63 = getelementptr inbounds nuw i8, ptr %0, i64 8
  %64 = load ptr, ptr %63, align 8
  %65 = getelementptr inbounds nuw i8, ptr %64, i64 36
  %66 = load i8, ptr %65, align 4, !range !4, !noundef !5
  %67 = trunc nuw i8 %66 to i1
  br i1 %67, label %68, label %96

68:                                               ; preds = %62
  %69 = load ptr, ptr %1, align 8
  tail call void @ExecCustomScanInitializeDSM(ptr noundef nonnull %0, ptr noundef %69) #9
  br label %96

70:                                               ; preds = %17
  %71 = getelementptr inbounds nuw i8, ptr %0, i64 8
  %72 = load ptr, ptr %71, align 8
  %73 = getelementptr inbounds nuw i8, ptr %72, i64 36
  %74 = load i8, ptr %73, align 4, !range !4, !noundef !5
  %75 = trunc nuw i8 %74 to i1
  br i1 %75, label %76, label %96

76:                                               ; preds = %70
  %77 = load ptr, ptr %1, align 8
  tail call void @ExecBitmapHeapInitializeDSM(ptr noundef nonnull %0, ptr noundef %77) #9
  br label %96

78:                                               ; preds = %17
  %79 = getelementptr inbounds nuw i8, ptr %0, i64 8
  %80 = load ptr, ptr %79, align 8
  %81 = getelementptr inbounds nuw i8, ptr %80, i64 36
  %82 = load i8, ptr %81, align 4, !range !4, !noundef !5
  %83 = trunc nuw i8 %82 to i1
  br i1 %83, label %84, label %96

84:                                               ; preds = %78
  %85 = load ptr, ptr %1, align 8
  tail call void @ExecHashJoinInitializeDSM(ptr noundef nonnull %0, ptr noundef %85) #9
  br label %96

86:                                               ; preds = %17
  %87 = load ptr, ptr %1, align 8
  tail call void @ExecHashInitializeDSM(ptr noundef nonnull %0, ptr noundef %87) #9
  br label %96

88:                                               ; preds = %17
  %89 = load ptr, ptr %1, align 8
  tail call void @ExecSortInitializeDSM(ptr noundef nonnull %0, ptr noundef %89) #9
  br label %96

90:                                               ; preds = %17
  %91 = load ptr, ptr %1, align 8
  tail call void @ExecIncrementalSortInitializeDSM(ptr noundef nonnull %0, ptr noundef %91) #9
  br label %96

92:                                               ; preds = %17
  %93 = load ptr, ptr %1, align 8
  tail call void @ExecAggInitializeDSM(ptr noundef nonnull %0, ptr noundef %93) #9
  br label %96

94:                                               ; preds = %17
  %95 = load ptr, ptr %1, align 8
  tail call void @ExecMemoizeInitializeDSM(ptr noundef nonnull %0, ptr noundef %95) #9
  br label %96

96:                                               ; preds = %17, %78, %84, %70, %76, %62, %68, %54, %60, %46, %52, %38, %44, %30, %36, %22, %28, %94, %92, %90, %88, %86
  %97 = tail call zeroext i1 @planstate_tree_walker_impl(ptr noundef nonnull %0, ptr noundef nonnull @ExecParallelInitializeDSM, ptr noundef nonnull %1) #9
  br label %98

98:                                               ; preds = %2, %96
  %.0 = phi i1 [ %97, %96 ], [ false, %2 ]
  ret i1 %.0
}